target datalayout = "e-m:e-p270:32:32-p271:32:32-p272:64:64-i64:64-i128:128-f80:128-n8:16:32:64-S128"
target triple = "x86_64-pc-linux-gnu"

; Function Attrs: mustprogress uwtable
define dso_local noundef double @_ZN3igl8nchoosekEii(i32 noundef %0, i32 noundef %1) #3 {
  %3 = alloca double, align 8
  %4 = alloca i32, align 4
  %5 = alloca i32, align 4
  %6 = alloca double, align 8
  %7 = alloca i32, align 4
  store i32 %0, ptr %4, align 4, !tbaa !15
  store i32 %1, ptr %5, align 4, !tbaa !15
  %8 = load i32, ptr %5, align 4, !tbaa !15
  %9 = load i32, ptr %4, align 4, !tbaa !15
  %10 = sdiv i32 %9, 2
  %11 = icmp sgt i32 %8, %10
  br i1 %11, label %12, label %18

12:                                               ; preds = %2
  %13 = load i32, ptr %4, align 4, !tbaa !15
  %14 = load i32, ptr %4, align 4, !tbaa !15
  %15 = load i32, ptr %5, align 4, !tbaa !15
  %16 = sub nsw i32 %14, %15
  %17 = call noundef double @_ZN3igl8nchoosekEii(i32 noundef %13, i32 noundef %16)
  store double %17, ptr %3, align 8
  br label %50

18:                                               ; preds = %2
  %19 = load i32, ptr %5, align 4, !tbaa !15
  %20 = icmp eq i32 %19, 1
  br i1 %20, label %21, label %24

21:                                               ; preds = %18
  %22 = load i32, ptr %4, align 4, !tbaa !15
  %23 = sitofp i32 %22 to double
  store double %23, ptr %3, align 8
  br label %50

24:                                               ; preds = %18
  call void @llvm.lifetime.start.p0(i64 8, ptr %6) #16
  store double 1.000000e+00, ptr %6, align 8, !tbaa !17
  call void @llvm.lifetime.start.p0(i64 4, ptr %7) #16
  store i32 1, ptr %7, align 4, !tbaa !15
  br label %25

25:                                               ; preds = %44, %24
  %26 = load i32, ptr %7, align 4, !tbaa !15
  %27 = load i32, ptr %5, align 4, !tbaa !15
  %28 = icmp sle i32 %26, %27
  br i1 %28, label %30, label %29

29:                                               ; preds = %25
  call void @llvm.lifetime.end.p0(i64 4, ptr %7) #16
  br label %47

30:                                               ; preds = %25
  %31 = load i32, ptr %4, align 4, !tbaa !15
  %32 = sitofp i32 %31 to double
  %33 = load i32, ptr %5, align 4, !tbaa !15
  %34 = sitofp i32 %33 to double
  %35 = fsub double %32, %34
  %36 = load i32, ptr %7, align 4, !tbaa !15
  %37 = sitofp i32 %36 to double
  %38 = fadd double %35, %37
  %39 = load i32, ptr %7, align 4, !tbaa !15
  %40 = sitofp i32 %39 to double
  %41 = fdiv double %38, %40
  %42 = load double, ptr %6, align 8, !tbaa !17
  %43 = fmul double %42, %41
  store double %43, ptr %6, align 8, !tbaa !17
  br label %44

44:                                               ; preds = %30
  %45 = load i32, ptr %7, align 4, !tbaa !15
  %46 = add nsw i32 %45, 1
  store i32 %46, ptr %7, align 4, !tbaa !15
  br label %25, !llvm.loop !19

47:                                               ; preds = %29
  %48 = load double, ptr %6, align 8, !tbaa !17
  %49 = call double @llvm.round.f64(double %48)
  store double %49, ptr %3, align 8
  call void @llvm.lifetime.end.p0(i64 8, ptr %6) #16
  br label %50

50:                                               ; preds = %47, %21, %12
  %51 = load double, ptr %3, align 8
  ret double %51
}