; Function Attrs: mustprogress nofree norecurse nosync nounwind willreturn memory(none) uwtable
define dso_local noundef double @_ZN3igl8nchoosekEii(i32 noundef %0, i32 noundef %1) local_unnamed_addr #0 {
  %3 = sdiv i32 %0, 2
  br label %tailrecurse

tailrecurse:                                      ; preds = %tailrecurse, %2
  %.tr19 = phi i32 [ %1, %2 ], [ %5, %tailrecurse ]
  %4 = icmp sgt i32 %.tr19, %3
  %5 = sub nsw i32 %0, %.tr19
  br i1 %4, label %tailrecurse, label %6

6:                                                ; preds = %tailrecurse
  %7 = icmp eq i32 %.tr19, 1
  br i1 %7, label %11, label %.preheader

.preheader:                                       ; preds = %6
  %.not20 = icmp slt i32 %.tr19, 1
  br i1 %.not20, label %._crit_edge, label %.lr.ph

.lr.ph:                                           ; preds = %.preheader
  %8 = sitofp i32 %0 to double
  %9 = uitofp nneg i32 %.tr19 to double
  %10 = fsub double %8, %9
  br label %14

11:                                               ; preds = %6
  %12 = sitofp i32 %0 to double
  br label %20

._crit_edge:                                      ; preds = %14, %.preheader
  %.016.lcssa = phi double [ 1.000000e+00, %.preheader ], [ %18, %14 ]
  %13 = tail call double @llvm.round.f64(double %.016.lcssa)
  br label %20

14:                                               ; preds = %.lr.ph, %14
  %.022 = phi i32 [ 1, %.lr.ph ], [ %19, %14 ]
  %.01621 = phi double [ 1.000000e+00, %.lr.ph ], [ %18, %14 ]
  %15 = uitofp nneg i32 %.022 to double
  %16 = fadd double %10, %15
  %17 = fdiv double %16, %15
  %18 = fmul double %.01621, %17
  %19 = add nuw i32 %.022, 1
  %exitcond.not = icmp eq i32 %.022, %.tr19
  br i1 %exitcond.not, label %._crit_edge, label %14, !llvm.loop !4

20:                                               ; preds = %._crit_edge, %11
  %.017 = phi double [ %12, %11 ], [ %13, %._crit_edge ]
  ret double %.017
}